target datalayout = "e-m:e-p270:32:32-p271:32:32-p272:64:64-i64:64-i128:128-f80:128-n8:16:32:64-S128"
target triple = "x86_64-pc-linux-gnu"

%class.LibRaw = type { ptr, %struct.libraw_data_t, ptr, %struct.libraw_internal_data_t, [2048 x %struct.decode], ptr, ptr, [10 x %struct.tiff_ifd_t], %class.libraw_memmgr, %struct.libraw_callbacks_t, { i64, i64 }, { i64, i64 }, { i64, i64 }, ptr, ptr, ptr, i64, ptr, ptr, ptr, ptr }
%struct.libraw_data_t = type { ptr, %struct.libraw_image_sizes_t, %struct.libraw_iparams_t, %struct.libraw_lensinfo_t, %struct.libraw_makernotes_t, %struct.libraw_shootinginfo_t, %struct.libraw_output_params_t, %struct.libraw_raw_unpack_params_t, i32, i32, %struct.libraw_colordata_t, %struct.libraw_imgother_t, %struct.libraw_thumbnail_t, %struct.libraw_thumbnail_list_t, %struct.libraw_rawdata_t, ptr }
%struct.libraw_image_sizes_t = type { i16, i16, i16, i16, i16, i16, i16, i16, i32, double, i32, [8 x [4 x i32]], i16, [2 x %struct.libraw_raw_inset_crop_t] }
%struct.libraw_raw_inset_crop_t = type { i16, i16, i16, i16 }
%struct.libraw_iparams_t = type { [4 x i8], [64 x i8], [64 x i8], [64 x i8], [64 x i8], [64 x i8], i32, i32, i32, i32, i32, i32, [6 x [6 x i8]], [6 x [6 x i8]], [5 x i8], i32, ptr }
%struct.libraw_lensinfo_t = type { float, float, float, float, float, [128 x i8], [128 x i8], [128 x i8], [128 x i8], i16, %struct.libraw_nikonlens_t, %struct.libraw_dnglens_t, %struct.libraw_makernotes_lens_t }
%struct.libraw_nikonlens_t = type { float, i8, i8, i8, i8 }
%struct.libraw_dnglens_t = type { float, float, float, float }
%struct.libraw_makernotes_lens_t = type { i64, [128 x i8], i16, i16, i64, i16, i16, [64 x i8], i16, [16 x i8], [16 x i8], float, float, float, float, float, float, float, float, float, float, float, float, float, float, float, i64, [128 x i8], i64, [128 x i8], i64, [128 x i8], i16, float }
%struct.libraw_makernotes_t = type { %struct.libraw_canon_makernotes_t, %struct.libraw_nikon_makernotes_t, %struct.libraw_hasselblad_makernotes_t, %struct.libraw_fuji_info_t, %struct.libraw_olympus_makernotes_t, %struct.libraw_sony_info_t, %struct.libraw_kodak_makernotes_t, %struct.libraw_panasonic_makernotes_t, %struct.libraw_pentax_makernotes_t, %struct.libraw_p1_makernotes_t, %struct.libraw_ricoh_makernotes_t, %struct.libraw_samsung_makernotes_t, %struct.libraw_metadata_common_t }
%struct.libraw_canon_makernotes_t = type { i32, i32, i32, i32, [4 x i32], i32, [4 x i32], i16, i16, i8, i16, i16, i16, i16, i16, i16, i16, i16, i16, i16, i16, i16, i16, i32, float, i16, i16, i16, i32, i16, i32, i32, i16, i32, %struct.libraw_area_t, %struct.libraw_area_t, %struct.libraw_area_t, %struct.libraw_area_t, %struct.libraw_area_t, [2 x i16] }
%struct.libraw_area_t = type { i16, i16, i16, i16 }
%struct.libraw_nikon_makernotes_t = type { double, i16, i16, [7 x i8], i8, i8, [13 x i8], [20 x i8], [4 x i8], [4 x i8], [4 x i8], i8, i8, i8, i8, i8, [2 x i8], i8, i8, i8, i8, i8, [4 x i8], [4 x i8], i8, i16, i32, i32, i32, i32, [4 x double], i8, i8, i8, i32, i32, i32, i8, [4 x i16], i16, %struct.libraw_sensor_highspeed_crop_t, i16, i16, i16, i32, [20 x i8], [20 x i8], i32, i16, double, double, double }
%struct.libraw_sensor_highspeed_crop_t = type { i16, i16, i16, i16 }
%struct.libraw_hasselblad_makernotes_t = type { i32, double, [8 x i8], [64 x i8], [64 x i8], i32, i32, i32, i32, [32 x i8], [64 x i8], i32, [2 x i32], [2 x i32], [4 x [3 x double]] }
%struct.libraw_fuji_info_t = type { float, i16, i16, i16, i16, i16, i16, i16, i16, [33 x i8], [33 x i8], float, i16, i16, [2 x i16], i16, i32, i32, i16, [3 x i16], i16, i16, i16, i16, i16, i32, i16, [13 x i8], [5 x i8], [5 x i8], i32, i16, i32, i16, [9 x i16], [32 x i32], i32, i32, i32, [2 x float], i32 }
%struct.libraw_olympus_makernotes_t = type { [6 x i8], i16, [2 x i32], [5 x i16], i16, [2 x i16], i16, i16, [64 x i32], [5 x double], i16, i8, [3 x i16], [3 x i32], i16, i16, i16, i16, double, [4 x i16], [2 x i32], i8, i32, i16, i16 }
%struct.libraw_sony_info_t = type { i16, i8, i8, i32, i8, i32, i8, i8, i16, [2 x i16], i8, i8, i16, [10 x i8], i8, i8, [4 x i16], i16, i8, i8, i8, i16, i32, i16, [2 x i16], i16, i16, i16, i16, i16, i16, i16, i32, float, i16, i32, i32, i16, [20 x i8], i32, i16, i32, i8, i8, i16, i16, i16, i16, i16, i16, i16, i16, i16, i32, i16, [16 x i8], float }
%struct.libraw_kodak_makernotes_t = type { i16, i16, i16, i16, i16, i16, [3 x [3 x float]], [3 x [3 x float]], [3 x [3 x float]], [3 x [3 x float]], [3 x [3 x float]], [3 x [3 x float]], i16, i16, i16, i16, float, float }
%struct.libraw_panasonic_makernotes_t = type { i16, i16, [8 x float], i32, float, [3 x i32], i16, i16, i32, i32 }
%struct.libraw_pentax_makernotes_t = type { [4 x i8], [2 x i16], [2 x i16], i16, i32, i32, i16, i16, i8, i8, i16 }
%struct.libraw_p1_makernotes_t = type { [64 x i8], [64 x i8], [256 x i8], [64 x i8] }
%struct.libraw_ricoh_makernotes_t = type { i16, [2 x i32], [2 x i32], i16, i32, i32, i32, i32, i16, i16, i16, i16, i16, i16, double, double }
%struct.libraw_samsung_makernotes_t = type { [4 x i32], [4 x i32], [2 x i32], [11 x i32], double, i32, [32 x i8] }
%struct.libraw_metadata_common_t = type { float, float, float, float, float, float, float, float, float, float, float, float, float, float, float, float, i16, [128 x i8], float, [4 x %struct.libraw_afinfo_item_t], i32 }
%struct.libraw_afinfo_item_t = type { i32, i16, i32, i32, ptr }
%struct.libraw_shootinginfo_t = type { i16, i16, i16, i16, i16, i16, i16, [64 x i8], [64 x i8] }
%struct.libraw_output_params_t = type { [4 x i32], [4 x i32], [4 x double], [6 x double], [4 x float], float, float, i32, i32, i32, i32, i32, i32, i32, ptr, ptr, ptr, ptr, i32, i32, i32, i32, i32, i32, [4 x i32], i32, i32, float, float, i32, i32, i32, i32, i32, i32, i32, i32, float, float, i32, i32 }
%struct.libraw_raw_unpack_params_t = type { i32, i32, i32, i32, i32, i32, i32, float, [5 x i8], ptr }
%struct.libraw_colordata_t = type { [65536 x i16], [4104 x i32], i32, i32, i32, [4 x i64], float, float, [8 x [8 x i16]], [4 x float], [4 x float], [3 x [4 x float]], [3 x [4 x float]], [3 x [4 x float]], [4 x [3 x float]], %struct.ph1_t, float, float, [64 x i8], [64 x i8], [64 x i8], [64 x i8], [17 x i8], [64 x i8], ptr, i32, [8 x i32], [2 x %struct.libraw_dng_color_t], %struct.libraw_dng_levels_t, [256 x [4 x i32]], [64 x [5 x float]], i32, [2 x %struct.libraw_P1_color_t], i32, i32 }
%struct.ph1_t = type { i32, i32, i32, i32, i32, i32, i32, i32, float }
%struct.libraw_dng_color_t = type { i32, i16, [4 x [4 x float]], [4 x [3 x float]], [3 x [4 x float]] }
%struct.libraw_dng_levels_t = type { i32, [4104 x i32], i32, [4104 x float], float, [4 x i32], [4 x i16], [4 x float], i32, [4 x float], [4 x float], float, float }
%struct.libraw_P1_color_t = type { [9 x float] }
%struct.libraw_imgother_t = type { float, float, float, float, i64, i32, [32 x i32], %struct.libraw_gps_info_t, [512 x i8], [64 x i8], [4 x float] }
%struct.libraw_gps_info_t = type { [3 x float], [3 x float], [3 x float], float, i8, i8, i8, i8, i8 }
%struct.libraw_thumbnail_t = type { i32, i16, i16, i32, i32, ptr }
%struct.libraw_thumbnail_list_t = type { i32, [8 x %struct.libraw_thumbnail_item_t] }
%struct.libraw_thumbnail_item_t = type { i32, i16, i16, i16, i32, i32, i64 }
%struct.libraw_rawdata_t = type { ptr, ptr, ptr, ptr, ptr, ptr, ptr, ptr, ptr, %struct.libraw_iparams_t, %struct.libraw_image_sizes_t, %struct.libraw_internal_output_params_t, %struct.libraw_colordata_t }
%struct.libraw_internal_output_params_t = type { i32, i32, i32, i16, i16 }
%struct.libraw_internal_data_t = type { %struct.internal_data_t, %struct.libraw_internal_output_params_t, %struct.output_data_t, %struct.identify_data_t, %struct.unpacker_data_t }
%struct.internal_data_t = type { ptr, ptr, i32, ptr, i64, i64, [4 x i32] }
%struct.output_data_t = type { ptr, ptr }
%struct.identify_data_t = type { i32, i64, i64, i32, i32, i32 }
%struct.unpacker_data_t = type { i16, [4 x i16], [3 x i16], i32, i64, i64, i64, i64, i64, i64, i32, i32, i32, i32, i32, i32, i32, i32, i32, i32, i32, i32, i32, i32, i32, i32, i32, i64, i32, i32, i32, i32, i32, i32, i32, i32, i32, %struct.pana8_tags_t, [16 x %struct.crx_data_header_t], i32, i32, i16, i16, i32, i32, i32, i32, i32, i32, i32, [20 x i32], i16 }
%struct.pana8_tags_t = type { [6 x i32], [6 x i16], i16, [4 x i16], [17 x i16], [17 x i16], [17 x i16], i16, i16, [5 x i64], [5 x i16], [5 x i32], [5 x i16], [5 x i16] }
%struct.crx_data_header_t = type { i32, i32, i32, i32, i32, i32, i32, i32, i32, i32, i32, i32, i32, i32, i32, i64, i32, ptr, i32, i32, i32, ptr, i32, ptr }
%struct.decode = type { [2 x ptr], i32 }
%struct.tiff_ifd_t = type { i32, i32, i32, i32, i32, i32, i32, i32, i32, i32, i32, i32, i32, i32, i32, ptr, i32, ptr, i32, i32, i32, i32, i32, i32, i32, float, i64, i64, i32, [2 x %struct.libraw_dng_color_t], %struct.libraw_dng_levels_t, i32 }
%class.libraw_memmgr = type <{ ptr, i32, [4 x i8] }>
%struct.libraw_callbacks_t = type { ptr, ptr, ptr, ptr, ptr, ptr, ptr, ptr, ptr, ptr, ptr, ptr, ptr, ptr, ptr, ptr, ptr }

; Function Attrs: mustprogress nounwind uwtable
define linkonce_odr noundef i32 @_ZN6LibRaw2FCEii(ptr noundef nonnull align 8 dereferenceable(767680) %0, i32 noundef %1, i32 noundef %2) #2 comdat align 2 {
  %4 = alloca ptr, align 8
  %5 = alloca i32, align 4
  %6 = alloca i32, align 4
  store ptr %0, ptr %4, align 8, !tbaa !6
  store i32 %1, ptr %5, align 4, !tbaa !74
  store i32 %2, ptr %6, align 4, !tbaa !74
  %7 = load ptr, ptr %4, align 8
  %8 = getelementptr inbounds nuw %class.LibRaw, ptr %7, i32 0, i32 1
  %9 = getelementptr inbounds nuw %struct.libraw_data_t, ptr %8, i32 0, i32 2
  %10 = getelementptr inbounds nuw %struct.libraw_iparams_t, ptr %9, i32 0, i32 11
  %11 = load i32, ptr %10, align 8, !tbaa !82
  %12 = load i32, ptr %5, align 4, !tbaa !74
  %13 = shl i32 %12, 1
  %14 = and i32 %13, 14
  %15 = load i32, ptr %6, align 4, !tbaa !74
  %16 = and i32 %15, 1
  %17 = or i32 %14, %16
  %18 = shl i32 %17, 1
  %19 = lshr i32 %11, %18
  %20 = and i32 %19, 3
  ret i32 %20
}

; Function Attrs: mustprogress uwtable
define void @_ZN6LibRaw14dcb_correctionEv(ptr noundef nonnull align 8 dereferenceable(767680) %0) #0 align 2 {
  %2 = alloca ptr, align 8
  %3 = alloca i32, align 4
  %4 = alloca i32, align 4
  %5 = alloca i32, align 4
  %6 = alloca i32, align 4
  %7 = alloca i32, align 4
  %8 = alloca i32, align 4
  store ptr %0, ptr %2, align 8, !tbaa !6
  %9 = load ptr, ptr %2, align 8
  call void @llvm.lifetime.start.p0(i64 4, ptr %3) #6
  call void @llvm.lifetime.start.p0(i64 4, ptr %4) #6
  call void @llvm.lifetime.start.p0(i64 4, ptr %5) #6
  call void @llvm.lifetime.start.p0(i64 4, ptr %6) #6
  %10 = getelementptr inbounds nuw %class.LibRaw, ptr %9, i32 0, i32 1
  %11 = getelementptr inbounds nuw %struct.libraw_data_t, ptr %10, i32 0, i32 1
  %12 = getelementptr inbounds nuw %struct.libraw_image_sizes_t, ptr %11, i32 0, i32 3
  %13 = load i16, ptr %12, align 2, !tbaa !13
  %14 = zext i16 %13 to i32
  store i32 %14, ptr %6, align 4, !tbaa !74
  call void @llvm.lifetime.start.p0(i64 4, ptr %7) #6
  %15 = load i32, ptr %6, align 4, !tbaa !74
  %16 = mul nsw i32 2, %15
  store i32 %16, ptr %7, align 4, !tbaa !74
  call void @llvm.lifetime.start.p0(i64 4, ptr %8) #6
  store i32 2, ptr %4, align 4, !tbaa !74
  br label %17

17:                                               ; preds = %218, %1
  %18 = load i32, ptr %4, align 4, !tbaa !74
  %19 = getelementptr inbounds nuw %class.LibRaw, ptr %9, i32 0, i32 1
  %20 = getelementptr inbounds nuw %struct.libraw_data_t, ptr %19, i32 0, i32 1
  %21 = getelementptr inbounds nuw %struct.libraw_image_sizes_t, ptr %20, i32 0, i32 2
  %22 = load i16, ptr %21, align 4, !tbaa !75
  %23 = zext i16 %22 to i32
  %24 = sub nsw i32 %23, 2
  %25 = icmp slt i32 %18, %24
  br i1 %25, label %26, label %221

26:                                               ; preds = %17
  %27 = load i32, ptr %4, align 4, !tbaa !74
  %28 = call noundef i32 @_ZN6LibRaw2FCEii(ptr noundef nonnull align 8 dereferenceable(767680) %9, i32 noundef %27, i32 noundef 2)
  %29 = and i32 %28, 1
  %30 = add nsw i32 2, %29
  store i32 %30, ptr %5, align 4, !tbaa !74
  %31 = load i32, ptr %4, align 4, !tbaa !74
  %32 = getelementptr inbounds nuw %class.LibRaw, ptr %9, i32 0, i32 1
  %33 = getelementptr inbounds nuw %struct.libraw_data_t, ptr %32, i32 0, i32 1
  %34 = getelementptr inbounds nuw %struct.libraw_image_sizes_t, ptr %33, i32 0, i32 3
  %35 = load i16, ptr %34, align 2, !tbaa !13
  %36 = zext i16 %35 to i32
  %37 = mul nsw i32 %31, %36
  %38 = load i32, ptr %5, align 4, !tbaa !74
  %39 = add nsw i32 %37, %38
  store i32 %39, ptr %8, align 4, !tbaa !74
  br label %40

40:                                               ; preds = %212, %26
  %41 = load i32, ptr %5, align 4, !tbaa !74
  %42 = load i32, ptr %6, align 4, !tbaa !74
  %43 = sub nsw i32 %42, 2
  %44 = icmp slt i32 %41, %43
  br i1 %44, label %45, label %217

45:                                               ; preds = %40
  %46 = getelementptr inbounds nuw %class.LibRaw, ptr %9, i32 0, i32 1
  %47 = getelementptr inbounds nuw %struct.libraw_data_t, ptr %46, i32 0, i32 0
  %48 = load ptr, ptr %47, align 8, !tbaa !76
  %49 = load i32, ptr %8, align 4, !tbaa !74
  %50 = sext i32 %49 to i64
  %51 = getelementptr inbounds [4 x i16], ptr %48, i64 %50
  %52 = getelementptr inbounds [4 x i16], ptr %51, i64 0, i64 3
  %53 = load i16, ptr %52, align 2, !tbaa !77
  %54 = zext i16 %53 to i32
  %55 = mul nsw i32 4, %54
  %56 = getelementptr inbounds nuw %class.LibRaw, ptr %9, i32 0, i32 1
  %57 = getelementptr inbounds nuw %struct.libraw_data_t, ptr %56, i32 0, i32 0
  %58 = load ptr, ptr %57, align 8, !tbaa !76
  %59 = load i32, ptr %8, align 4, !tbaa !74
  %60 = load i32, ptr %6, align 4, !tbaa !74
  %61 = add nsw i32 %59, %60
  %62 = sext i32 %61 to i64
  %63 = getelementptr inbounds [4 x i16], ptr %58, i64 %62
  %64 = getelementptr inbounds [4 x i16], ptr %63, i64 0, i64 3
  %65 = load i16, ptr %64, align 2, !tbaa !77
  %66 = zext i16 %65 to i32
  %67 = getelementptr inbounds nuw %class.LibRaw, ptr %9, i32 0, i32 1
  %68 = getelementptr inbounds nuw %struct.libraw_data_t, ptr %67, i32 0, i32 0
  %69 = load ptr, ptr %68, align 8, !tbaa !76
  %70 = load i32, ptr %8, align 4, !tbaa !74
  %71 = load i32, ptr %6, align 4, !tbaa !74
  %72 = sub nsw i32 %70, %71
  %73 = sext i32 %72 to i64
  %74 = getelementptr inbounds [4 x i16], ptr %69, i64 %73
  %75 = getelementptr inbounds [4 x i16], ptr %74, i64 0, i64 3
  %76 = load i16, ptr %75, align 2, !tbaa !77
  %77 = zext i16 %76 to i32
  %78 = add nsw i32 %66, %77
  %79 = getelementptr inbounds nuw %class.LibRaw, ptr %9, i32 0, i32 1
  %80 = getelementptr inbounds nuw %struct.libraw_data_t, ptr %79, i32 0, i32 0
  %81 = load ptr, ptr %80, align 8, !tbaa !76
  %82 = load i32, ptr %8, align 4, !tbaa !74
  %83 = add nsw i32 %82, 1
  %84 = sext i32 %83 to i64
  %85 = getelementptr inbounds [4 x i16], ptr %81, i64 %84
  %86 = getelementptr inbounds [4 x i16], ptr %85, i64 0, i64 3
  %87 = load i16, ptr %86, align 2, !tbaa !77
  %88 = zext i16 %87 to i32
  %89 = add nsw i32 %78, %88
  %90 = getelementptr inbounds nuw %class.LibRaw, ptr %9, i32 0, i32 1
  %91 = getelementptr inbounds nuw %struct.libraw_data_t, ptr %90, i32 0, i32 0
  %92 = load ptr, ptr %91, align 8, !tbaa !76
  %93 = load i32, ptr %8, align 4, !tbaa !74
  %94 = sub nsw i32 %93, 1
  %95 = sext i32 %94 to i64
  %96 = getelementptr inbounds [4 x i16], ptr %92, i64 %95
  %97 = getelementptr inbounds [4 x i16], ptr %96, i64 0, i64 3
  %98 = load i16, ptr %97, align 2, !tbaa !77
  %99 = zext i16 %98 to i32
  %100 = add nsw i32 %89, %99
  %101 = mul nsw i32 2, %100
  %102 = add nsw i32 %55, %101
  %103 = getelementptr inbounds nuw %class.LibRaw, ptr %9, i32 0, i32 1
  %104 = getelementptr inbounds nuw %struct.libraw_data_t, ptr %103, i32 0, i32 0
  %105 = load ptr, ptr %104, align 8, !tbaa !76
  %106 = load i32, ptr %8, align 4, !tbaa !74
  %107 = load i32, ptr %7, align 4, !tbaa !74
  %108 = add nsw i32 %106, %107
  %109 = sext i32 %108 to i64
  %110 = getelementptr inbounds [4 x i16], ptr %105, i64 %109
  %111 = getelementptr inbounds [4 x i16], ptr %110, i64 0, i64 3
  %112 = load i16, ptr %111, align 2, !tbaa !77
  %113 = zext i16 %112 to i32
  %114 = add nsw i32 %102, %113
  %115 = getelementptr inbounds nuw %class.LibRaw, ptr %9, i32 0, i32 1
  %116 = getelementptr inbounds nuw %struct.libraw_data_t, ptr %115, i32 0, i32 0
  %117 = load ptr, ptr %116, align 8, !tbaa !76
  %118 = load i32, ptr %8, align 4, !tbaa !74
  %119 = load i32, ptr %7, align 4, !tbaa !74
  %120 = sub nsw i32 %118, %119
  %121 = sext i32 %120 to i64
  %122 = getelementptr inbounds [4 x i16], ptr %117, i64 %121
  %123 = getelementptr inbounds [4 x i16], ptr %122, i64 0, i64 3
  %124 = load i16, ptr %123, align 2, !tbaa !77
  %125 = zext i16 %124 to i32
  %126 = add nsw i32 %114, %125
  %127 = getelementptr inbounds nuw %class.LibRaw, ptr %9, i32 0, i32 1
  %128 = getelementptr inbounds nuw %struct.libraw_data_t, ptr %127, i32 0, i32 0
  %129 = load ptr, ptr %128, align 8, !tbaa !76
  %130 = load i32, ptr %8, align 4, !tbaa !74
  %131 = add nsw i32 %130, 2
  %132 = sext i32 %131 to i64
  %133 = getelementptr inbounds [4 x i16], ptr %129, i64 %132
  %134 = getelementptr inbounds [4 x i16], ptr %133, i64 0, i64 3
  %135 = load i16, ptr %134, align 2, !tbaa !77
  %136 = zext i16 %135 to i32
  %137 = add nsw i32 %126, %136
  %138 = getelementptr inbounds nuw %class.LibRaw, ptr %9, i32 0, i32 1
  %139 = getelementptr inbounds nuw %struct.libraw_data_t, ptr %138, i32 0, i32 0
  %140 = load ptr, ptr %139, align 8, !tbaa !76
  %141 = load i32, ptr %8, align 4, !tbaa !74
  %142 = sub nsw i32 %141, 2
  %143 = sext i32 %142 to i64
  %144 = getelementptr inbounds [4 x i16], ptr %140, i64 %143
  %145 = getelementptr inbounds [4 x i16], ptr %144, i64 0, i64 3
  %146 = load i16, ptr %145, align 2, !tbaa !77
  %147 = zext i16 %146 to i32
  %148 = add nsw i32 %137, %147
  store i32 %148, ptr %3, align 4, !tbaa !74
  %149 = load i32, ptr %3, align 4, !tbaa !74
  %150 = sub nsw i32 16, %149
  %151 = getelementptr inbounds nuw %class.LibRaw, ptr %9, i32 0, i32 1
  %152 = getelementptr inbounds nuw %struct.libraw_data_t, ptr %151, i32 0, i32 0
  %153 = load ptr, ptr %152, align 8, !tbaa !76
  %154 = load i32, ptr %8, align 4, !tbaa !74
  %155 = sub nsw i32 %154, 1
  %156 = sext i32 %155 to i64
  %157 = getelementptr inbounds [4 x i16], ptr %153, i64 %156
  %158 = getelementptr inbounds [4 x i16], ptr %157, i64 0, i64 1
  %159 = load i16, ptr %158, align 2, !tbaa !77
  %160 = zext i16 %159 to i32
  %161 = getelementptr inbounds nuw %class.LibRaw, ptr %9, i32 0, i32 1
  %162 = getelementptr inbounds nuw %struct.libraw_data_t, ptr %161, i32 0, i32 0
  %163 = load ptr, ptr %162, align 8, !tbaa !76
  %164 = load i32, ptr %8, align 4, !tbaa !74
  %165 = add nsw i32 %164, 1
  %166 = sext i32 %165 to i64
  %167 = getelementptr inbounds [4 x i16], ptr %163, i64 %166
  %168 = getelementptr inbounds [4 x i16], ptr %167, i64 0, i64 1
  %169 = load i16, ptr %168, align 2, !tbaa !77
  %170 = zext i16 %169 to i32
  %171 = add nsw i32 %160, %170
  %172 = mul nsw i32 %150, %171
  %173 = sitofp i32 %172 to double
  %174 = fdiv reassoc nsz arcp contract afn double %173, 2.000000e+00
  %175 = load i32, ptr %3, align 4, !tbaa !74
  %176 = getelementptr inbounds nuw %class.LibRaw, ptr %9, i32 0, i32 1
  %177 = getelementptr inbounds nuw %struct.libraw_data_t, ptr %176, i32 0, i32 0
  %178 = load ptr, ptr %177, align 8, !tbaa !76
  %179 = load i32, ptr %8, align 4, !tbaa !74
  %180 = load i32, ptr %6, align 4, !tbaa !74
  %181 = sub nsw i32 %179, %180
  %182 = sext i32 %181 to i64
  %183 = getelementptr inbounds [4 x i16], ptr %178, i64 %182
  %184 = getelementptr inbounds [4 x i16], ptr %183, i64 0, i64 1
  %185 = load i16, ptr %184, align 2, !tbaa !77
  %186 = zext i16 %185 to i32
  %187 = getelementptr inbounds nuw %class.LibRaw, ptr %9, i32 0, i32 1
  %188 = getelementptr inbounds nuw %struct.libraw_data_t, ptr %187, i32 0, i32 0
  %189 = load ptr, ptr %188, align 8, !tbaa !76
  %190 = load i32, ptr %8, align 4, !tbaa !74
  %191 = load i32, ptr %6, align 4, !tbaa !74
  %192 = add nsw i32 %190, %191
  %193 = sext i32 %192 to i64
  %194 = getelementptr inbounds [4 x i16], ptr %189, i64 %193
  %195 = getelementptr inbounds [4 x i16], ptr %194, i64 0, i64 1
  %196 = load i16, ptr %195, align 2, !tbaa !77
  %197 = zext i16 %196 to i32
  %198 = add nsw i32 %186, %197
  %199 = mul nsw i32 %175, %198
  %200 = sitofp i32 %199 to double
  %201 = fdiv reassoc nsz arcp contract afn double %200, 2.000000e+00
  %202 = fadd reassoc nsz arcp contract afn double %174, %201
  %203 = fdiv reassoc nsz arcp contract afn double %202, 1.600000e+01
  %204 = fptoui double %203 to i16
  %205 = getelementptr inbounds nuw %class.LibRaw, ptr %9, i32 0, i32 1
  %206 = getelementptr inbounds nuw %struct.libraw_data_t, ptr %205, i32 0, i32 0
  %207 = load ptr, ptr %206, align 8, !tbaa !76
  %208 = load i32, ptr %8, align 4, !tbaa !74
  %209 = sext i32 %208 to i64
  %210 = getelementptr inbounds [4 x i16], ptr %207, i64 %209
  %211 = getelementptr inbounds [4 x i16], ptr %210, i64 0, i64 1
  store i16 %204, ptr %211, align 2, !tbaa !77
  br label %212

212:                                              ; preds = %45
  %213 = load i32, ptr %5, align 4, !tbaa !74
  %214 = add nsw i32 %213, 2
  store i32 %214, ptr %5, align 4, !tbaa !74
  %215 = load i32, ptr %8, align 4, !tbaa !74
  %216 = add nsw i32 %215, 2
  store i32 %216, ptr %8, align 4, !tbaa !74
  br label %40, !llvm.loop !116

217:                                              ; preds = %40
  br label %218

218:                                              ; preds = %217
  %219 = load i32, ptr %4, align 4, !tbaa !74
  %220 = add nsw i32 %219, 1
  store i32 %220, ptr %4, align 4, !tbaa !74
  br label %17, !llvm.loop !117

221:                                              ; preds = %17
  call void @llvm.lifetime.end.p0(i64 4, ptr %8) #6
  call void @llvm.lifetime.end.p0(i64 4, ptr %7) #6
  call void @llvm.lifetime.end.p0(i64 4, ptr %6) #6
  call void @llvm.lifetime.end.p0(i64 4, ptr %5) #6
  call void @llvm.lifetime.end.p0(i64 4, ptr %4) #6
  call void @llvm.lifetime.end.p0(i64 4, ptr %3) #6
  ret void
}