; Function Attrs: mustprogress nofree norecurse nosync nounwind memory(readwrite, inaccessiblemem: none) uwtable
define void @_ZN6LibRaw14dcb_correctionEv(ptr noundef nonnull readonly align 8 captures(none) dereferenceable(767680) %0) local_unnamed_addr #1 align 2 {
  %2 = getelementptr inbounds nuw i8, ptr %0, i64 22
  %3 = getelementptr inbounds nuw i8, ptr %0, i64 20
  %4 = load i16, ptr %3, align 4, !tbaa !71
  %5 = icmp ugt i16 %4, 4
  br i1 %5, label %.lr.ph38, label %._crit_edge39

.lr.ph38:                                         ; preds = %1
  %6 = load i16, ptr %2, align 2, !tbaa !6
  %7 = zext i16 %6 to i32
  %8 = shl nuw nsw i32 %7, 1
  %9 = getelementptr inbounds nuw i8, ptr %0, i64 8
  %10 = getelementptr inbounds nuw i8, ptr %0, i64 544
  %11 = load i32, ptr %10, align 8, !tbaa !72
  %12 = add nsw i32 %7, -2
  %13 = load ptr, ptr %9, align 8
  %14 = zext nneg i32 %8 to i64
  %15 = zext i16 %6 to i64
  %invariant.gep = getelementptr [4 x i16], ptr %13, i64 %15
  br label %16

16:                                               ; preds = %.lr.ph38, %._crit_edge
  %17 = phi i16 [ %4, %.lr.ph38 ], [ %97, %._crit_edge ]
  %.03236 = phi i32 [ 2, %.lr.ph38 ], [ %98, %._crit_edge ]
  %18 = shl i32 %.03236, 2
  %19 = and i32 %18, 28
  %20 = lshr i32 %11, %19
  %21 = and i32 %20, 1
  %22 = or disjoint i32 %21, 2
  %23 = icmp slt i32 %22, %12
  br i1 %23, label %.lr.ph.preheader, label %._crit_edge

.lr.ph.preheader:                                 ; preds = %16
  %24 = load i16, ptr %2, align 2, !tbaa !6
  %25 = zext i16 %24 to i32
  %26 = mul i32 %.03236, %25
  %27 = add i32 %26, 2
  %28 = add i32 %27, %21
  %29 = sext i32 %28 to i64
  br label %.lr.ph

.lr.ph:                                           ; preds = %.lr.ph.preheader, %.lr.ph
  %indvars.iv = phi i64 [ %29, %.lr.ph.preheader ], [ %indvars.iv.next, %.lr.ph ]
  %.03334 = phi i32 [ %22, %.lr.ph.preheader ], [ %95, %.lr.ph ]
  %30 = getelementptr inbounds nuw [4 x i16], ptr %13, i64 %indvars.iv
  %31 = getelementptr inbounds nuw i8, ptr %30, i64 6
  %32 = load i16, ptr %31, align 2, !tbaa !73
  %33 = zext i16 %32 to i32
  %34 = shl nuw nsw i32 %33, 2
  %gep = getelementptr [4 x i16], ptr %invariant.gep, i64 %indvars.iv
  %35 = getelementptr inbounds nuw i8, ptr %gep, i64 6
  %36 = load i16, ptr %35, align 2, !tbaa !73
  %37 = zext i16 %36 to i32
  %38 = sub nsw i64 %indvars.iv, %15
  %39 = getelementptr inbounds [4 x i16], ptr %13, i64 %38
  %40 = getelementptr inbounds nuw i8, ptr %39, i64 6
  %41 = load i16, ptr %40, align 2, !tbaa !73
  %42 = zext i16 %41 to i32
  %43 = add nuw nsw i32 %42, %37
  %44 = getelementptr inbounds nuw i8, ptr %30, i64 14
  %45 = load i16, ptr %44, align 2, !tbaa !73
  %46 = zext i16 %45 to i32
  %47 = add nuw nsw i32 %43, %46
  %48 = getelementptr i8, ptr %30, i64 -2
  %49 = load i16, ptr %48, align 2, !tbaa !73
  %50 = zext i16 %49 to i32
  %51 = add nuw nsw i32 %47, %50
  %52 = shl nuw nsw i32 %51, 1
  %53 = add nuw nsw i64 %indvars.iv, %14
  %54 = getelementptr inbounds nuw [4 x i16], ptr %13, i64 %53, i64 3
  %55 = load i16, ptr %54, align 2, !tbaa !73
  %56 = zext i16 %55 to i32
  %57 = sub nsw i64 %indvars.iv, %14
  %58 = getelementptr inbounds [4 x i16], ptr %13, i64 %57, i64 3
  %59 = load i16, ptr %58, align 2, !tbaa !73
  %60 = zext i16 %59 to i32
  %indvars.iv.next = add nuw nsw i64 %indvars.iv, 2
  %61 = getelementptr inbounds nuw [4 x i16], ptr %13, i64 %indvars.iv.next, i64 3
  %62 = load i16, ptr %61, align 2, !tbaa !73
  %63 = zext i16 %62 to i32
  %64 = getelementptr i8, ptr %30, i64 -10
  %65 = load i16, ptr %64, align 2, !tbaa !73
  %66 = zext i16 %65 to i32
  %67 = add nuw nsw i32 %34, %56
  %68 = add nuw nsw i32 %67, %52
  %69 = add nuw nsw i32 %68, %60
  %70 = add nuw nsw i32 %69, %63
  %71 = add nuw nsw i32 %70, %66
  %72 = sub nsw i32 16, %71
  %73 = getelementptr i8, ptr %30, i64 -6
  %74 = load i16, ptr %73, align 2, !tbaa !73
  %75 = zext i16 %74 to i32
  %76 = getelementptr inbounds nuw i8, ptr %30, i64 10
  %77 = load i16, ptr %76, align 2, !tbaa !73
  %78 = zext i16 %77 to i32
  %79 = add nuw nsw i32 %78, %75
  %80 = mul nsw i32 %72, %79
  %81 = sitofp i32 %80 to double
  %82 = getelementptr inbounds nuw i8, ptr %39, i64 2
  %83 = load i16, ptr %82, align 2, !tbaa !73
  %84 = zext i16 %83 to i32
  %85 = getelementptr inbounds nuw i8, ptr %gep, i64 2
  %86 = load i16, ptr %85, align 2, !tbaa !73
  %87 = zext i16 %86 to i32
  %88 = add nuw nsw i32 %87, %84
  %89 = mul nuw nsw i32 %88, %71
  %90 = uitofp nneg i32 %89 to double
  %91 = fadd reassoc nsz arcp contract afn double %90, %81
  %92 = fmul reassoc nsz arcp contract afn double %91, 3.125000e-02
  %93 = fptoui double %92 to i16
  %94 = getelementptr inbounds nuw i8, ptr %30, i64 2
  store i16 %93, ptr %94, align 2, !tbaa !73
  %95 = add nuw nsw i32 %.03334, 2
  %96 = icmp slt i32 %95, %12
  br i1 %96, label %.lr.ph, label %._crit_edge.loopexit, !llvm.loop !112

._crit_edge.loopexit:                             ; preds = %.lr.ph
  %.pre = load i16, ptr %3, align 4, !tbaa !71
  br label %._crit_edge

._crit_edge:                                      ; preds = %._crit_edge.loopexit, %16
  %97 = phi i16 [ %.pre, %._crit_edge.loopexit ], [ %17, %16 ]
  %98 = add nuw nsw i32 %.03236, 1
  %99 = zext i16 %97 to i32
  %100 = add nsw i32 %99, -2
  %101 = icmp slt i32 %98, %100
  br i1 %101, label %16, label %._crit_edge39, !llvm.loop !113

._crit_edge39:                                    ; preds = %._crit_edge, %1
  ret void
}